; ModuleID = 'source-C-CXX/12/1766.c'
source_filename = "source-C-CXX/12/1766.c"
target datalayout = "e-m:e-p270:32:32-p271:32:32-p272:64:64-i64:64-f80:128-n8:16:32:64-S128"
target triple = "x86_64-pc-linux-gnu"

@.str = private unnamed_addr constant [3 x i8] c"%d\00", align 1
@.str.1 = private unnamed_addr constant [4 x i8] c"%d \00", align 1

; Function Attrs: nofree nounwind sspstrong uwtable
define dso_local i32 @main() local_unnamed_addr #0 {
  %1 = alloca i32, align 4
  %2 = alloca [20001 x i32], align 16
  %3 = alloca i32, align 4
  %4 = bitcast i32* %1 to i8*
  call void @llvm.lifetime.start.p0i8(i64 4, i8* nonnull %4) #4
  %5 = call i32 (i8*, ...) @__isoc99_scanf(i8* getelementptr inbounds ([3 x i8], [3 x i8]* @.str, i64 0, i64 0), i32* nonnull %1)
  %6 = bitcast [20001 x i32]* %2 to i8*
  call void @llvm.lifetime.start.p0i8(i64 80004, i8* nonnull %6) #4
  %7 = getelementptr inbounds [20001 x i32], [20001 x i32]* %2, i64 0, i64 0
  call void @llvm.memset.p0i8.i64(i8* noundef nonnull align 16 dereferenceable(20001) %6, i8 0, i64 20001, i1 false)
  %8 = bitcast i32* %3 to i8*
  call void @llvm.lifetime.start.p0i8(i64 4, i8* nonnull %8) #4
  %9 = load i32, i32* %1, align 4, !tbaa !5
  %10 = icmp slt i32 %9, 1
  br i1 %10, label %56, label %15

11:                                               ; preds = %43
  %12 = icmp sgt i32 %44, 1
  br i1 %12, label %13, label %56

13:                                               ; preds = %11
  %14 = zext i32 %44 to i64
  br label %48

15:                                               ; preds = %0, %43
  %16 = phi i32 [ %44, %43 ], [ 1, %0 ]
  %17 = phi i32 [ %45, %43 ], [ 1, %0 ]
  %18 = call i32 (i8*, ...) @__isoc99_scanf(i8* getelementptr inbounds ([3 x i8], [3 x i8]* @.str, i64 0, i64 0), i32* nonnull %3)
  %19 = icmp eq i32 %17, 1
  %20 = load i32, i32* %3, align 4
  br i1 %19, label %23, label %21

21:                                               ; preds = %15
  %22 = icmp slt i32 %16, 1
  br i1 %22, label %43, label %24

23:                                               ; preds = %15
  store i32 %20, i32* %7, align 16, !tbaa !5
  br label %43

24:                                               ; preds = %21, %38
  %25 = phi i64 [ %40, %38 ], [ 1, %21 ]
  %26 = phi i32 [ %39, %38 ], [ %16, %21 ]
  %27 = add nsw i64 %25, -1
  %28 = getelementptr inbounds [20001 x i32], [20001 x i32]* %2, i64 0, i64 %27
  %29 = load i32, i32* %28, align 4, !tbaa !5
  %30 = icmp eq i32 %20, %29
  br i1 %30, label %43, label %31

31:                                               ; preds = %24
  %32 = zext i32 %26 to i64
  %33 = icmp eq i64 %25, %32
  br i1 %33, label %34, label %38

34:                                               ; preds = %31
  %35 = add nsw i32 %26, 1
  %36 = sext i32 %26 to i64
  %37 = getelementptr inbounds [20001 x i32], [20001 x i32]* %2, i64 0, i64 %36
  store i32 %20, i32* %37, align 4, !tbaa !5
  br label %38

38:                                               ; preds = %34, %31
  %39 = phi i32 [ %35, %34 ], [ %26, %31 ]
  %40 = add nuw nsw i64 %25, 1
  %41 = sext i32 %39 to i64
  %42 = icmp slt i64 %25, %41
  br i1 %42, label %24, label %43, !llvm.loop !9

43:                                               ; preds = %38, %24, %21, %23
  %44 = phi i32 [ %16, %23 ], [ %16, %21 ], [ %39, %38 ], [ %26, %24 ]
  %45 = add nuw nsw i32 %17, 1
  %46 = load i32, i32* %1, align 4, !tbaa !5
  %47 = icmp slt i32 %17, %46
  br i1 %47, label %15, label %11, !llvm.loop !11

48:                                               ; preds = %13, %48
  %49 = phi i64 [ 1, %13 ], [ %54, %48 ]
  %50 = add nsw i64 %49, -1
  %51 = getelementptr inbounds [20001 x i32], [20001 x i32]* %2, i64 0, i64 %50
  %52 = load i32, i32* %51, align 4, !tbaa !5
  %53 = call i32 (i8*, ...) @printf(i8* nonnull dereferenceable(1) getelementptr inbounds ([4 x i8], [4 x i8]* @.str.1, i64 0, i64 0), i32 %52)
  %54 = add nuw nsw i64 %49, 1
  %55 = icmp eq i64 %54, %14
  br i1 %55, label %56, label %48, !llvm.loop !12

56:                                               ; preds = %48, %0, %11
  %57 = phi i32 [ %44, %11 ], [ 1, %0 ], [ %44, %48 ]
  %58 = add nsw i32 %57, -1
  %59 = sext i32 %58 to i64
  %60 = getelementptr inbounds [20001 x i32], [20001 x i32]* %2, i64 0, i64 %59
  %61 = load i32, i32* %60, align 4, !tbaa !5
  %62 = call i32 (i8*, ...) @printf(i8* nonnull dereferenceable(1) getelementptr inbounds ([3 x i8], [3 x i8]* @.str, i64 0, i64 0), i32 %61)
  call void @llvm.lifetime.end.p0i8(i64 4, i8* nonnull %8) #4
  call void @llvm.lifetime.end.p0i8(i64 80004, i8* nonnull %6) #4
  call void @llvm.lifetime.end.p0i8(i64 4, i8* nonnull %4) #4
  ret i32 0
}

; Function Attrs: argmemonly mustprogress nofree nosync nounwind willreturn
declare void @llvm.lifetime.start.p0i8(i64 immarg, i8* nocapture) #1

; Function Attrs: nofree nounwind
declare noundef i32 @__isoc99_scanf(i8* nocapture noundef readonly, ...) local_unnamed_addr #2

; Function Attrs: argmemonly mustprogress nofree nounwind willreturn writeonly
declare void @llvm.memset.p0i8.i64(i8* nocapture writeonly, i8, i64, i1 immarg) #3

; Function Attrs: nofree nounwind
declare noundef i32 @printf(i8* nocapture noundef readonly, ...) local_unnamed_addr #2

; Function Attrs: argmemonly mustprogress nofree nosync nounwind willreturn
declare void @llvm.lifetime.end.p0i8(i64 immarg, i8* nocapture) #1


!llvm.module.flags = !{!0, !1, !2, !3}
!llvm.ident = !{!4}

!0 = !{i32 1, !"wchar_size", i32 4}
!1 = !{i32 7, !"PIC Level", i32 2}
!2 = !{i32 7, !"PIE Level", i32 2}
!3 = !{i32 7, !"uwtable", i32 1}
!4 = !{!"clang version 13.0.0"}
!5 = !{!6, !6, i64 0}
!6 = !{!"int", !7, i64 0}
!7 = !{!"omnipotent char", !8, i64 0}
!8 = !{!"Simple C/C++ TBAA"}
!9 = distinct !{!9, !10}
!10 = !{!"llvm.loop.mustprogress"}
!11 = distinct !{!11, !10}
!12 = distinct !{!12, !10}
